target datalayout = "e-m:e-p270:32:32-p271:32:32-p272:64:64-i64:64-i128:128-f80:128-n8:16:32:64-S128"
target triple = "x86_64-pc-linux-gnu"

%struct.multi_pack_index = type { ptr, ptr, i64, ptr, ptr, i64, i32, i8, i8, i8, i32, i32, i32, i32, i32, ptr, i64, ptr, i64, ptr, ptr, ptr, ptr, i64, ptr, i64, ptr, i32, i32, ptr, ptr, ptr, [0 x i8] }
%struct.string_list = type { ptr, i64, i64, i8, ptr }
%struct.packed_git = type { %struct.hashmap_entry, ptr, %struct.list_head, ptr, i64, ptr, i64, i32, i64, %struct.oidset, i32, i64, i32, i32, i8, [32 x i8], ptr, ptr, ptr, i64, ptr, i64, ptr, [0 x i8] }
%struct.hashmap_entry = type { ptr, i32 }
%struct.list_head = type { ptr, ptr }
%struct.oidset = type { %struct.kh_oid_set }
%struct.kh_oid_set = type { i32, i32, i32, i32, ptr, ptr, ptr }

@.str = private unnamed_addr constant [57 x i8] c"cannot expire packs from an incremental multi-pack-index\00", align 1
@.str.1 = private unnamed_addr constant [28 x i8] c"Counting referenced objects\00", align 1
@.str.2 = private unnamed_addr constant [44 x i8] c"Finding and deleting unreferenced packfiles\00", align 1
@.str.74 = private unnamed_addr constant [5 x i8] c"done\00", align 1

; Function Attrs: inlinehint nounwind uwtable
define internal void @stop_progress(ptr noundef %0) #4 {
  %2 = alloca ptr, align 8
  store ptr %0, ptr %2, align 8, !tbaa !115
  %3 = load ptr, ptr %2, align 8, !tbaa !115
  %4 = call ptr @_(ptr noundef @.str.74)
  call void @stop_progress_msg(ptr noundef %3, ptr noundef %4)
  ret void
}

; Function Attrs: nounwind uwtable
define dso_local i32 @expire_midx_packs(ptr noundef %0, ptr noundef %1, i32 noundef %2) #0 {
  %4 = alloca i32, align 4
  %5 = alloca ptr, align 8
  %6 = alloca ptr, align 8
  %7 = alloca i32, align 4
  %8 = alloca i32, align 4
  %9 = alloca ptr, align 8
  %10 = alloca i32, align 4
  %11 = alloca %struct.string_list, align 8
  %12 = alloca ptr, align 8
  %13 = alloca ptr, align 8
  %14 = alloca i32, align 4
  %15 = alloca i32, align 4
  %16 = alloca ptr, align 8
  store ptr %0, ptr %5, align 8, !tbaa !4
  store ptr %1, ptr %6, align 8, !tbaa !9
  store i32 %2, ptr %7, align 4, !tbaa !11
  call void @llvm.lifetime.start.p0(i64 4, ptr %8) #11
  call void @llvm.lifetime.start.p0(i64 8, ptr %9) #11
  call void @llvm.lifetime.start.p0(i64 4, ptr %10) #11
  store i32 0, ptr %10, align 4, !tbaa !11
  call void @llvm.lifetime.start.p0(i64 40, ptr %11) #11
  call void @llvm.memset.p0.i64(ptr align 8 %11, i8 0, i64 40, i1 false)
  %17 = getelementptr inbounds { ptr, i64, i64, i8, [7 x i8], ptr }, ptr %11, i32 0, i32 3
  store i8 1, ptr %17, align 8
  call void @llvm.lifetime.start.p0(i64 8, ptr %12) #11
  %18 = load ptr, ptr %5, align 8, !tbaa !4
  %19 = load ptr, ptr %6, align 8, !tbaa !9
  %20 = call ptr @lookup_multi_pack_index(ptr noundef %18, ptr noundef %19)
  store ptr %20, ptr %12, align 8, !tbaa !48
  call void @llvm.lifetime.start.p0(i64 8, ptr %13) #11
  store ptr null, ptr %13, align 8, !tbaa !107
  %21 = load ptr, ptr %12, align 8, !tbaa !48
  %22 = icmp ne ptr %21, null
  br i1 %22, label %24, label %23

23:                                               ; preds = %3
  store i32 0, ptr %4, align 4
  store i32 1, ptr %14, align 4
  br label %184

24:                                               ; preds = %3
  %25 = load ptr, ptr %12, align 8, !tbaa !48
  %26 = getelementptr inbounds nuw %struct.multi_pack_index, ptr %25, i32 0, i32 26
  %27 = load ptr, ptr %26, align 8, !tbaa !48
  %28 = icmp ne ptr %27, null
  br i1 %28, label %29, label %31

29:                                               ; preds = %24
  %30 = call ptr @_(ptr noundef @.str)
  call void (ptr, ...) @die(ptr noundef %30) #12
  unreachable

31:                                               ; preds = %24
  %32 = load ptr, ptr %12, align 8, !tbaa !48
  %33 = getelementptr inbounds nuw %struct.multi_pack_index, ptr %32, i32 0, i32 10
  %34 = load i32, ptr %33, align 8, !tbaa !11
  %35 = zext i32 %34 to i64
  %36 = call ptr @xcalloc(i64 noundef %35, i64 noundef 4)
  store ptr %36, ptr %9, align 8, !tbaa !108
  %37 = load i32, ptr %7, align 4, !tbaa !11
  %38 = and i32 %37, 1
  %39 = icmp ne i32 %38, 0
  br i1 %39, label %40, label %48

40:                                               ; preds = %31
  %41 = load ptr, ptr %5, align 8, !tbaa !4
  %42 = call ptr @_(ptr noundef @.str.1)
  %43 = load ptr, ptr %12, align 8, !tbaa !48
  %44 = getelementptr inbounds nuw %struct.multi_pack_index, ptr %43, i32 0, i32 11
  %45 = load i32, ptr %44, align 4, !tbaa !11
  %46 = zext i32 %45 to i64
  %47 = call ptr @start_delayed_progress(ptr noundef %41, ptr noundef %42, i64 noundef %46)
  store ptr %47, ptr %13, align 8, !tbaa !107
  br label %48

48:                                               ; preds = %40, %31
  store i32 0, ptr %8, align 4, !tbaa !11
  br label %49

49:                                               ; preds = %69, %48
  %50 = load i32, ptr %8, align 4, !tbaa !11
  %51 = load ptr, ptr %12, align 8, !tbaa !48
  %52 = getelementptr inbounds nuw %struct.multi_pack_index, ptr %51, i32 0, i32 11
  %53 = load i32, ptr %52, align 4, !tbaa !11
  %54 = icmp ult i32 %50, %53
  br i1 %54, label %55, label %72

55:                                               ; preds = %49
  call void @llvm.lifetime.start.p0(i64 4, ptr %15) #11
  %56 = load ptr, ptr %12, align 8, !tbaa !48
  %57 = load i32, ptr %8, align 4, !tbaa !11
  %58 = call i32 @nth_midxed_pack_int_id(ptr noundef %56, i32 noundef %57)
  store i32 %58, ptr %15, align 4, !tbaa !11
  %59 = load ptr, ptr %9, align 8, !tbaa !108
  %60 = load i32, ptr %15, align 4, !tbaa !11
  %61 = sext i32 %60 to i64
  %62 = getelementptr inbounds i32, ptr %59, i64 %61
  %63 = load i32, ptr %62, align 4, !tbaa !11
  %64 = add i32 %63, 1
  store i32 %64, ptr %62, align 4, !tbaa !11
  %65 = load ptr, ptr %13, align 8, !tbaa !107
  %66 = load i32, ptr %8, align 4, !tbaa !11
  %67 = add i32 %66, 1
  %68 = zext i32 %67 to i64
  call void @display_progress(ptr noundef %65, i64 noundef %68)
  call void @llvm.lifetime.end.p0(i64 4, ptr %15) #11
  br label %69

69:                                               ; preds = %55
  %70 = load i32, ptr %8, align 4, !tbaa !11
  %71 = add i32 %70, 1
  store i32 %71, ptr %8, align 4, !tbaa !11
  br label %49, !llvm.loop !109

72:                                               ; preds = %49
  call void @stop_progress(ptr noundef %13)
  %73 = load i32, ptr %7, align 4, !tbaa !11
  %74 = and i32 %73, 1
  %75 = icmp ne i32 %74, 0
  br i1 %75, label %76, label %84

76:                                               ; preds = %72
  %77 = load ptr, ptr %5, align 8, !tbaa !4
  %78 = call ptr @_(ptr noundef @.str.2)
  %79 = load ptr, ptr %12, align 8, !tbaa !48
  %80 = getelementptr inbounds nuw %struct.multi_pack_index, ptr %79, i32 0, i32 10
  %81 = load i32, ptr %80, align 8, !tbaa !11
  %82 = zext i32 %81 to i64
  %83 = call ptr @start_delayed_progress(ptr noundef %77, ptr noundef %78, i64 noundef %82)
  store ptr %83, ptr %13, align 8, !tbaa !107
  br label %84

84:                                               ; preds = %76, %72
  store i32 0, ptr %8, align 4, !tbaa !11
  br label %85

85:                                               ; preds = %169, %84
  %86 = load i32, ptr %8, align 4, !tbaa !11
  %87 = load ptr, ptr %12, align 8, !tbaa !48
  %88 = getelementptr inbounds nuw %struct.multi_pack_index, ptr %87, i32 0, i32 10
  %89 = load i32, ptr %88, align 8, !tbaa !11
  %90 = icmp ult i32 %86, %89
  br i1 %90, label %91, label %172

91:                                               ; preds = %85
  call void @llvm.lifetime.start.p0(i64 8, ptr %16) #11
  %92 = load ptr, ptr %13, align 8, !tbaa !107
  %93 = load i32, ptr %8, align 4, !tbaa !11
  %94 = add i32 %93, 1
  %95 = zext i32 %94 to i64
  call void @display_progress(ptr noundef %92, i64 noundef %95)
  %96 = load ptr, ptr %9, align 8, !tbaa !108
  %97 = load i32, ptr %8, align 4, !tbaa !11
  %98 = zext i32 %97 to i64
  %99 = getelementptr inbounds nuw i32, ptr %96, i64 %98
  %100 = load i32, ptr %99, align 4, !tbaa !11
  %101 = icmp ne i32 %100, 0
  br i1 %101, label %102, label %103

102:                                              ; preds = %91
  store i32 7, ptr %14, align 4
  br label %166

103:                                              ; preds = %91
  %104 = load ptr, ptr %5, align 8, !tbaa !4
  %105 = load ptr, ptr %12, align 8, !tbaa !48
  %106 = load i32, ptr %8, align 4, !tbaa !11
  %107 = call i32 @prepare_midx_pack(ptr noundef %104, ptr noundef %105, i32 noundef %106)
  %108 = icmp ne i32 %107, 0
  br i1 %108, label %109, label %110

109:                                              ; preds = %103
  store i32 7, ptr %14, align 4
  br label %166

110:                                              ; preds = %103
  %111 = load ptr, ptr %12, align 8, !tbaa !48
  %112 = getelementptr inbounds nuw %struct.multi_pack_index, ptr %111, i32 0, i32 30
  %113 = load ptr, ptr %112, align 8, !tbaa !110
  %114 = load i32, ptr %8, align 4, !tbaa !11
  %115 = zext i32 %114 to i64
  %116 = getelementptr inbounds nuw ptr, ptr %113, i64 %115
  %117 = load ptr, ptr %116, align 8, !tbaa !68
  %118 = getelementptr inbounds nuw %struct.packed_git, ptr %117, i32 0, i32 14
  %119 = load i8, ptr %118, align 8
  %120 = lshr i8 %119, 1
  %121 = and i8 %120, 1
  %122 = zext i8 %121 to i32
  %123 = icmp ne i32 %122, 0
  br i1 %123, label %137, label %124

124:                                              ; preds = %110
  %125 = load ptr, ptr %12, align 8, !tbaa !48
  %126 = getelementptr inbounds nuw %struct.multi_pack_index, ptr %125, i32 0, i32 30
  %127 = load ptr, ptr %126, align 8, !tbaa !110
  %128 = load i32, ptr %8, align 4, !tbaa !11
  %129 = zext i32 %128 to i64
  %130 = getelementptr inbounds nuw ptr, ptr %127, i64 %129
  %131 = load ptr, ptr %130, align 8, !tbaa !68
  %132 = getelementptr inbounds nuw %struct.packed_git, ptr %131, i32 0, i32 14
  %133 = load i8, ptr %132, align 8
  %134 = lshr i8 %133, 7
  %135 = zext i8 %134 to i32
  %136 = icmp ne i32 %135, 0
  br i1 %136, label %137, label %138

137:                                              ; preds = %124, %110
  store i32 7, ptr %14, align 4
  br label %166

138:                                              ; preds = %124
  %139 = load ptr, ptr %12, align 8, !tbaa !48
  %140 = getelementptr inbounds nuw %struct.multi_pack_index, ptr %139, i32 0, i32 30
  %141 = load ptr, ptr %140, align 8, !tbaa !110
  %142 = load i32, ptr %8, align 4, !tbaa !11
  %143 = zext i32 %142 to i64
  %144 = getelementptr inbounds nuw ptr, ptr %141, i64 %143
  %145 = load ptr, ptr %144, align 8, !tbaa !68
  %146 = getelementptr inbounds nuw %struct.packed_git, ptr %145, i32 0, i32 23
  %147 = getelementptr inbounds [0 x i8], ptr %146, i64 0, i64 0
  %148 = call ptr @xstrdup(ptr noundef %147)
  store ptr %148, ptr %16, align 8, !tbaa !9
  %149 = load ptr, ptr %12, align 8, !tbaa !48
  %150 = getelementptr inbounds nuw %struct.multi_pack_index, ptr %149, i32 0, i32 30
  %151 = load ptr, ptr %150, align 8, !tbaa !110
  %152 = load i32, ptr %8, align 4, !tbaa !11
  %153 = zext i32 %152 to i64
  %154 = getelementptr inbounds nuw ptr, ptr %151, i64 %153
  %155 = load ptr, ptr %154, align 8, !tbaa !68
  call void @close_pack(ptr noundef %155)
  %156 = load ptr, ptr %12, align 8, !tbaa !48
  %157 = getelementptr inbounds nuw %struct.multi_pack_index, ptr %156, i32 0, i32 29
  %158 = load ptr, ptr %157, align 8, !tbaa !17
  %159 = load i32, ptr %8, align 4, !tbaa !11
  %160 = zext i32 %159 to i64
  %161 = getelementptr inbounds nuw ptr, ptr %158, i64 %160
  %162 = load ptr, ptr %161, align 8, !tbaa !9
  %163 = call ptr @string_list_insert(ptr noundef %11, ptr noundef %162)
  %164 = load ptr, ptr %16, align 8, !tbaa !9
  call void @unlink_pack_path(ptr noundef %164, i32 noundef 0)
  %165 = load ptr, ptr %16, align 8, !tbaa !9
  call void @free(ptr noundef %165) #11
  store i32 0, ptr %14, align 4
  br label %166

166:                                              ; preds = %138, %137, %109, %102
  call void @llvm.lifetime.end.p0(i64 8, ptr %16) #11
  %167 = load i32, ptr %14, align 4
  switch i32 %167, label %186 [
    i32 0, label %168
    i32 7, label %169
  ]

168:                                              ; preds = %166
  br label %169

169:                                              ; preds = %168, %166
  %170 = load i32, ptr %8, align 4, !tbaa !11
  %171 = add i32 %170, 1
  store i32 %171, ptr %8, align 4, !tbaa !11
  br label %85, !llvm.loop !112

172:                                              ; preds = %85
  call void @stop_progress(ptr noundef %13)
  %173 = load ptr, ptr %9, align 8, !tbaa !108
  call void @free(ptr noundef %173) #11
  %174 = getelementptr inbounds nuw %struct.string_list, ptr %11, i32 0, i32 1
  %175 = load i64, ptr %174, align 8, !tbaa !69
  %176 = icmp ne i64 %175, 0
  br i1 %176, label %177, label %182

177:                                              ; preds = %172
  %178 = load ptr, ptr %5, align 8, !tbaa !4
  %179 = load ptr, ptr %6, align 8, !tbaa !9
  %180 = load i32, ptr %7, align 4, !tbaa !11
  %181 = call i32 @write_midx_internal(ptr noundef %178, ptr noundef %179, ptr noundef null, ptr noundef %11, ptr noundef null, ptr noundef null, i32 noundef %180)
  store i32 %181, ptr %10, align 4, !tbaa !11
  br label %182

182:                                              ; preds = %177, %172
  call void @string_list_clear(ptr noundef %11, i32 noundef 0)
  %183 = load i32, ptr %10, align 4, !tbaa !11
  store i32 %183, ptr %4, align 4
  store i32 1, ptr %14, align 4
  br label %184

184:                                              ; preds = %182, %23
  call void @llvm.lifetime.end.p0(i64 8, ptr %13) #11
  call void @llvm.lifetime.end.p0(i64 8, ptr %12) #11
  call void @llvm.lifetime.end.p0(i64 40, ptr %11) #11
  call void @llvm.lifetime.end.p0(i64 4, ptr %10) #11
  call void @llvm.lifetime.end.p0(i64 8, ptr %9) #11
  call void @llvm.lifetime.end.p0(i64 4, ptr %8) #11
  %185 = load i32, ptr %4, align 4
  ret i32 %185

186:                                              ; preds = %166
  unreachable
}