; Function Attrs: nounwind uwtable
define dso_local range(i32 -1, 2) i32 @expire_midx_packs(ptr noundef %0, ptr noundef %1, i32 noundef %2) local_unnamed_addr #0 {
  %4 = alloca %struct.string_list, align 8
  %5 = alloca ptr, align 8
  call void @llvm.lifetime.start.p0(i64 40, ptr nonnull %4) #19
  call void @llvm.memset.p0.i64(ptr noundef nonnull align 8 dereferenceable(40) %4, i8 0, i64 40, i1 false)
  %6 = getelementptr inbounds nuw i8, ptr %4, i64 24
  store i8 1, ptr %6, align 8
  %7 = tail call fastcc ptr @lookup_multi_pack_index(ptr noundef %0, ptr noundef %1)
  call void @llvm.lifetime.start.p0(i64 8, ptr nonnull %5) #19
  store ptr null, ptr %5, align 8, !tbaa !190
  %.not = icmp eq ptr %7, null
  br i1 %.not, label %90, label %8

8:                                                ; preds = %3
  %9 = getelementptr inbounds nuw i8, ptr %7, i64 168
  %10 = load ptr, ptr %9, align 8, !tbaa !47
  %.not48 = icmp eq ptr %10, null
  br i1 %.not48, label %13, label %11

11:                                               ; preds = %8
  %12 = tail call fastcc ptr @_(ptr noundef nonnull @.str)
  tail call void (ptr, ...) @die(ptr noundef %12) #20
  unreachable

13:                                               ; preds = %8
  %14 = getelementptr inbounds nuw i8, ptr %7, i64 56
  %15 = load i32, ptr %14, align 8, !tbaa !40
  %16 = zext i32 %15 to i64
  %17 = tail call ptr @xcalloc(i64 noundef %16, i64 noundef 4) #19
  %18 = and i32 %2, 1
  %.not49 = icmp eq i32 %18, 0
  br i1 %.not49, label %27, label %19

19:                                               ; preds = %13
  %20 = load i32, ptr @git_gettext_enabled, align 4, !tbaa !40
  %.not4.i = icmp eq i32 %20, 0
  br i1 %.not4.i, label %_.exit, label %21

21:                                               ; preds = %19
  %22 = tail call ptr @dcgettext(ptr noundef null, ptr noundef nonnull @.str.1, i32 noundef 5) #19
  br label %_.exit

_.exit:                                           ; preds = %19, %21
  %.0.i = phi ptr [ %22, %21 ], [ @.str.1, %19 ]
  %23 = getelementptr inbounds nuw i8, ptr %7, i64 60
  %24 = load i32, ptr %23, align 4, !tbaa !40
  %25 = zext i32 %24 to i64
  %26 = tail call ptr @start_delayed_progress(ptr noundef %0, ptr noundef %.0.i, i64 noundef %25) #19
  store ptr %26, ptr %5, align 8, !tbaa !190
  br label %27

27:                                               ; preds = %_.exit, %13
  %28 = phi ptr [ %26, %_.exit ], [ null, %13 ]
  %29 = getelementptr inbounds nuw i8, ptr %7, i64 60
  %30 = load i32, ptr %29, align 4, !tbaa !40
  %.not66 = icmp eq i32 %30, 0
  br i1 %.not66, label %._crit_edge, label %.lr.ph

.lr.ph:                                           ; preds = %27, %.lr.ph
  %indvars.iv = phi i64 [ %indvars.iv.next, %.lr.ph ], [ 0, %27 ]
  %31 = trunc nuw i64 %indvars.iv to i32
  %32 = tail call i32 @nth_midxed_pack_int_id(ptr noundef nonnull %7, i32 noundef %31) #19
  %33 = sext i32 %32 to i64
  %34 = getelementptr inbounds i32, ptr %17, i64 %33
  %35 = load i32, ptr %34, align 4, !tbaa !40
  %36 = add i32 %35, 1
  store i32 %36, ptr %34, align 4, !tbaa !40
  %indvars.iv.next = add nuw nsw i64 %indvars.iv, 1
  tail call void @display_progress(ptr noundef %28, i64 noundef %indvars.iv.next) #19
  %37 = load i32, ptr %29, align 4, !tbaa !40
  %38 = zext i32 %37 to i64
  %39 = icmp samesign ult i64 %indvars.iv.next, %38
  br i1 %39, label %.lr.ph, label %._crit_edge, !llvm.loop !191

._crit_edge:                                      ; preds = %.lr.ph, %27
  %40 = load i32, ptr @git_gettext_enabled, align 4, !tbaa !40
  %.not4.i.i = icmp eq i32 %40, 0
  br i1 %.not4.i.i, label %stop_progress.exit, label %41

41:                                               ; preds = %._crit_edge
  %42 = tail call ptr @dcgettext(ptr noundef null, ptr noundef nonnull @.str.74, i32 noundef 5) #19
  br label %stop_progress.exit

stop_progress.exit:                               ; preds = %._crit_edge, %41
  %.0.i.i = phi ptr [ %42, %41 ], [ @.str.74, %._crit_edge ]
  call void @stop_progress_msg(ptr noundef nonnull %5, ptr noundef %.0.i.i) #19
  br i1 %.not49, label %50, label %43

43:                                               ; preds = %stop_progress.exit
  %44 = load i32, ptr @git_gettext_enabled, align 4, !tbaa !40
  %.not4.i55 = icmp eq i32 %44, 0
  br i1 %.not4.i55, label %_.exit57, label %45

45:                                               ; preds = %43
  %46 = call ptr @dcgettext(ptr noundef null, ptr noundef nonnull @.str.2, i32 noundef 5) #19
  br label %_.exit57

_.exit57:                                         ; preds = %43, %45
  %.0.i56 = phi ptr [ %46, %45 ], [ @.str.2, %43 ]
  %47 = load i32, ptr %14, align 8, !tbaa !40
  %48 = zext i32 %47 to i64
  %49 = call ptr @start_delayed_progress(ptr noundef %0, ptr noundef %.0.i56, i64 noundef %48) #19
  store ptr %49, ptr %5, align 8, !tbaa !190
  br label %50

50:                                               ; preds = %_.exit57, %stop_progress.exit
  %51 = load i32, ptr %14, align 8, !tbaa !40
  %.not67 = icmp eq i32 %51, 0
  br i1 %.not67, label %._crit_edge65, label %.lr.ph64

.lr.ph64:                                         ; preds = %50
  %52 = getelementptr inbounds nuw i8, ptr %7, i64 192
  %53 = getelementptr inbounds nuw i8, ptr %7, i64 184
  br label %54

54:                                               ; preds = %.lr.ph64, %78
  %indvars.iv69 = phi i64 [ 0, %.lr.ph64 ], [ %indvars.iv.next70, %78 ]
  %55 = load ptr, ptr %5, align 8, !tbaa !190
  %indvars.iv.next70 = add nuw nsw i64 %indvars.iv69, 1
  call void @display_progress(ptr noundef %55, i64 noundef %indvars.iv.next70) #19
  %56 = getelementptr inbounds nuw i32, ptr %17, i64 %indvars.iv69
  %57 = load i32, ptr %56, align 4, !tbaa !40
  %.not51 = icmp eq i32 %57, 0
  br i1 %.not51, label %58, label %78

58:                                               ; preds = %54
  %59 = trunc nuw i64 %indvars.iv69 to i32
  %60 = call i32 @prepare_midx_pack(ptr noundef %0, ptr noundef nonnull %7, i32 noundef %59) #19
  %.not52 = icmp eq i32 %60, 0
  br i1 %.not52, label %61, label %78

61:                                               ; preds = %58
  %62 = load ptr, ptr %52, align 8, !tbaa !51
  %63 = getelementptr inbounds nuw ptr, ptr %62, i64 %indvars.iv69
  %64 = load ptr, ptr %63, align 8, !tbaa !53
  %65 = getelementptr inbounds nuw i8, ptr %64, i64 152
  %66 = load i8, ptr %65, align 8
  %67 = and i8 %66, -126
  %or.cond = icmp eq i8 %67, 0
  br i1 %or.cond, label %68, label %78

68:                                               ; preds = %61
  %69 = getelementptr inbounds nuw i8, ptr %64, i64 248
  %70 = call ptr @xstrdup(ptr noundef nonnull %69) #19
  %71 = load ptr, ptr %52, align 8, !tbaa !51
  %72 = getelementptr inbounds nuw ptr, ptr %71, i64 %indvars.iv69
  %73 = load ptr, ptr %72, align 8, !tbaa !53
  call void @close_pack(ptr noundef %73) #19
  %74 = load ptr, ptr %53, align 8, !tbaa !55
  %75 = getelementptr inbounds nuw ptr, ptr %74, i64 %indvars.iv69
  %76 = load ptr, ptr %75, align 8, !tbaa !57
  %77 = call ptr @string_list_insert(ptr noundef nonnull %4, ptr noundef %76) #19
  call void @unlink_pack_path(ptr noundef %70, i32 noundef 0) #19
  call void @free(ptr noundef %70) #19
  br label %78

78:                                               ; preds = %61, %58, %54, %68
  %79 = load i32, ptr %14, align 8, !tbaa !40
  %80 = zext i32 %79 to i64
  %81 = icmp samesign ult i64 %indvars.iv.next70, %80
  br i1 %81, label %54, label %._crit_edge65, !llvm.loop !192

._crit_edge65:                                    ; preds = %78, %50
  %82 = load i32, ptr @git_gettext_enabled, align 4, !tbaa !40
  %.not4.i.i58 = icmp eq i32 %82, 0
  br i1 %.not4.i.i58, label %stop_progress.exit60, label %83

83:                                               ; preds = %._crit_edge65
  %84 = call ptr @dcgettext(ptr noundef null, ptr noundef nonnull @.str.74, i32 noundef 5) #19
  br label %stop_progress.exit60

stop_progress.exit60:                             ; preds = %._crit_edge65, %83
  %.0.i.i59 = phi ptr [ %84, %83 ], [ @.str.74, %._crit_edge65 ]
  call void @stop_progress_msg(ptr noundef nonnull %5, ptr noundef %.0.i.i59) #19
  call void @free(ptr noundef %17) #19
  %85 = getelementptr inbounds nuw i8, ptr %4, i64 8
  %86 = load i64, ptr %85, align 8, !tbaa !69
  %.not50 = icmp eq i64 %86, 0
  br i1 %.not50, label %89, label %87

87:                                               ; preds = %stop_progress.exit60
  %88 = call fastcc i32 @write_midx_internal(ptr noundef %0, ptr noundef %1, ptr noundef null, ptr noundef nonnull %4, ptr noundef null, ptr noundef null, i32 noundef %2)
  br label %89

89:                                               ; preds = %87, %stop_progress.exit60
  %.046 = phi i32 [ %88, %87 ], [ 0, %stop_progress.exit60 ]
  call void @string_list_clear(ptr noundef nonnull %4, i32 noundef 0) #19
  br label %90

90:                                               ; preds = %3, %89
  %.0 = phi i32 [ %.046, %89 ], [ 0, %3 ]
  call void @llvm.lifetime.end.p0(i64 8, ptr nonnull %5) #19
  call void @llvm.lifetime.end.p0(i64 40, ptr nonnull %4) #19
  ret i32 %.0
}